target datalayout = "e-m:e-p270:32:32-p271:32:32-p272:64:64-i64:64-i128:128-f80:128-n8:16:32:64-S128"
target triple = "x86_64-unknown-linux-gnu"

%struct.ObjectClass = type { ptr, ptr, [4 x ptr], [4 x ptr], ptr, ptr }
%struct.InterfaceClass = type { %struct.ObjectClass, ptr, ptr }
%struct.InterruptStatsProviderClass = type { %struct.InterfaceClass, ptr, ptr }

@.str = private unnamed_addr constant [35 x i8] c"../qemu/hw/core/machine-qmp-cmds.c\00", align 1
@.str.31 = private unnamed_addr constant [8 x i8] c"intctrl\00", align 1
@__func__.qmp_x_query_irq_foreach = private unnamed_addr constant [24 x i8] c"qmp_x_query_irq_foreach\00", align 1
@.str.32 = private unnamed_addr constant [24 x i8] c"IRQ statistics for %s:\0A\00", align 1
@.str.33 = private unnamed_addr constant [10 x i8] c"%2d: %ld\0A\00", align 1
@.str.34 = private unnamed_addr constant [38 x i8] c"IRQ statistics not available for %s.\0A\00", align 1
@.str.35 = private unnamed_addr constant [101 x i8] c"/home/dtcxzyw/WorkSpace/Projects/compilers/llvm-opt-benchmark/bench/qemu/qemu/include/hw/intc/intc.h\00", align 1
@__func__.INTERRUPT_STATS_PROVIDER_GET_CLASS = private unnamed_addr constant [35 x i8] c"INTERRUPT_STATS_PROVIDER_GET_CLASS\00", align 1

; Function Attrs: nounwind sspstrong uwtable
define internal ptr @INTERRUPT_STATS_PROVIDER_GET_CLASS(ptr noundef %obj) #0 {
entry:
  %obj.addr = alloca ptr, align 8
  store ptr %obj, ptr %obj.addr, align 8
  %0 = load ptr, ptr %obj.addr, align 8
  %call = call ptr @object_get_class(ptr noundef %0)
  %call1 = call ptr @object_class_dynamic_cast_assert(ptr noundef %call, ptr noundef @.str.31, ptr noundef @.str.35, i32 noundef 10, ptr noundef @__func__.INTERRUPT_STATS_PROVIDER_GET_CLASS)
  ret ptr %call1
}

; Function Attrs: nounwind sspstrong uwtable
define internal i32 @qmp_x_query_irq_foreach(ptr noundef %obj, ptr noundef %opaque) #0 {
entry:
  %obj.addr = alloca ptr, align 8
  %opaque.addr = alloca ptr, align 8
  %intc = alloca ptr, align 8
  %k = alloca ptr, align 8
  %buf = alloca ptr, align 8
  %irq_counts = alloca ptr, align 8
  %nb_irqs = alloca i32, align 4
  %i = alloca i32, align 4
  store ptr %obj, ptr %obj.addr, align 8
  store ptr %opaque, ptr %opaque.addr, align 8
  %0 = load ptr, ptr %opaque.addr, align 8
  store ptr %0, ptr %buf, align 8
  %1 = load ptr, ptr %obj.addr, align 8
  %call = call ptr @object_dynamic_cast(ptr noundef %1, ptr noundef @.str.31)
  %tobool = icmp ne ptr %call, null
  br i1 %tobool, label %if.then, label %if.end17

if.then:                                          ; preds = %entry
  %2 = load ptr, ptr %obj.addr, align 8
  %call1 = call ptr @object_dynamic_cast_assert(ptr noundef %2, ptr noundef @.str.31, ptr noundef @.str, i32 noundef 340, ptr noundef @__func__.qmp_x_query_irq_foreach)
  store ptr %call1, ptr %intc, align 8
  %3 = load ptr, ptr %obj.addr, align 8
  %call2 = call ptr @INTERRUPT_STATS_PROVIDER_GET_CLASS(ptr noundef %3)
  store ptr %call2, ptr %k, align 8
  %4 = load ptr, ptr %k, align 8
  %get_statistics = getelementptr inbounds %struct.InterruptStatsProviderClass, ptr %4, i32 0, i32 1
  %5 = load ptr, ptr %get_statistics, align 8
  %tobool3 = icmp ne ptr %5, null
  br i1 %tobool3, label %land.lhs.true, label %if.else

land.lhs.true:                                    ; preds = %if.then
  %6 = load ptr, ptr %k, align 8
  %get_statistics4 = getelementptr inbounds %struct.InterruptStatsProviderClass, ptr %6, i32 0, i32 1
  %7 = load ptr, ptr %get_statistics4, align 8
  %8 = load ptr, ptr %intc, align 8
  %call5 = call zeroext i1 %7(ptr noundef %8, ptr noundef %irq_counts, ptr noundef %nb_irqs)
  br i1 %call5, label %if.then6, label %if.else

if.then6:                                         ; preds = %land.lhs.true
  %9 = load i32, ptr %nb_irqs, align 4
  %cmp = icmp ugt i32 %9, 0
  br i1 %cmp, label %if.then7, label %if.end14

if.then7:                                         ; preds = %if.then6
  %10 = load ptr, ptr %buf, align 8
  %11 = load ptr, ptr %obj.addr, align 8
  %call8 = call ptr @object_get_typename(ptr noundef %11)
  call void (ptr, ptr, ...) @g_string_append_printf(ptr noundef %10, ptr noundef @.str.32, ptr noundef %call8)
  store i32 0, ptr %i, align 4
  br label %for.cond

for.cond:                                         ; preds = %for.inc, %if.then7
  %12 = load i32, ptr %i, align 4
  %13 = load i32, ptr %nb_irqs, align 4
  %cmp9 = icmp ult i32 %12, %13
  br i1 %cmp9, label %for.body, label %for.end

for.body:                                         ; preds = %for.cond
  %14 = load ptr, ptr %irq_counts, align 8
  %15 = load i32, ptr %i, align 4
  %idxprom = zext i32 %15 to i64
  %arrayidx = getelementptr i64, ptr %14, i64 %idxprom
  %16 = load i64, ptr %arrayidx, align 8
  %cmp10 = icmp ugt i64 %16, 0
  br i1 %cmp10, label %if.then11, label %if.end

if.then11:                                        ; preds = %for.body
  %17 = load ptr, ptr %buf, align 8
  %18 = load i32, ptr %i, align 4
  %19 = load ptr, ptr %irq_counts, align 8
  %20 = load i32, ptr %i, align 4
  %idxprom12 = zext i32 %20 to i64
  %arrayidx13 = getelementptr i64, ptr %19, i64 %idxprom12
  %21 = load i64, ptr %arrayidx13, align 8
  call void (ptr, ptr, ...) @g_string_append_printf(ptr noundef %17, ptr noundef @.str.33, i32 noundef %18, i64 noundef %21)
  br label %if.end

if.end:                                           ; preds = %if.then11, %for.body
  br label %for.inc

for.inc:                                          ; preds = %if.end
  %22 = load i32, ptr %i, align 4
  %inc = add i32 %22, 1
  store i32 %inc, ptr %i, align 4
  br label %for.cond, !llvm.loop !12

for.end:                                          ; preds = %for.cond
  br label %if.end14

if.end14:                                         ; preds = %for.end, %if.then6
  br label %if.end16

if.else:                                          ; preds = %land.lhs.true, %if.then
  %23 = load ptr, ptr %buf, align 8
  %24 = load ptr, ptr %obj.addr, align 8
  %call15 = call ptr @object_get_typename(ptr noundef %24)
  call void (ptr, ptr, ...) @g_string_append_printf(ptr noundef %23, ptr noundef @.str.34, ptr noundef %call15)
  br label %if.end16

if.end16:                                         ; preds = %if.else, %if.end14
  br label %if.end17

if.end17:                                         ; preds = %if.end16, %entry
  ret i32 0
}