; Function Attrs: nounwind sspstrong uwtable
define internal noundef i32 @qmp_x_query_irq_foreach(ptr noundef %obj, ptr noundef %opaque) #0 {
entry:
  %irq_counts = alloca ptr, align 8
  %nb_irqs = alloca i32, align 4
  %call = tail call ptr @object_dynamic_cast(ptr noundef %obj, ptr noundef nonnull @.str.31) #7
  %tobool.not = icmp eq ptr %call, null
  br i1 %tobool.not, label %if.end17, label %if.then

if.then:                                          ; preds = %entry
  %call1 = tail call ptr @object_dynamic_cast_assert(ptr noundef %obj, ptr noundef nonnull @.str.31, ptr noundef nonnull @.str, i32 noundef 340, ptr noundef nonnull @__func__.qmp_x_query_irq_foreach) #7
  %call.i = tail call ptr @object_get_class(ptr noundef %obj) #7
  %call1.i = tail call ptr @object_class_dynamic_cast_assert(ptr noundef %call.i, ptr noundef nonnull @.str.31, ptr noundef nonnull @.str.35, i32 noundef 10, ptr noundef nonnull @__func__.INTERRUPT_STATS_PROVIDER_GET_CLASS) #7
  %get_statistics = getelementptr inbounds nuw i8, ptr %call1.i, i64 112
  %0 = load ptr, ptr %get_statistics, align 8
  %tobool3.not = icmp eq ptr %0, null
  br i1 %tobool3.not, label %if.else, label %land.lhs.true

land.lhs.true:                                    ; preds = %if.then
  %call5 = call zeroext i1 %0(ptr noundef %call1, ptr noundef nonnull %irq_counts, ptr noundef nonnull %nb_irqs) #7
  br i1 %call5, label %if.then6, label %if.else

if.then6:                                         ; preds = %land.lhs.true
  %1 = load i32, ptr %nb_irqs, align 4
  %cmp.not = icmp eq i32 %1, 0
  br i1 %cmp.not, label %if.end17, label %if.then7

if.then7:                                         ; preds = %if.then6
  %call8 = call ptr @object_get_typename(ptr noundef %obj) #7
  call void (ptr, ptr, ...) @g_string_append_printf(ptr noundef %opaque, ptr noundef nonnull @.str.32, ptr noundef %call8) #7
  %2 = load i32, ptr %nb_irqs, align 4
  %cmp913.not = icmp eq i32 %2, 0
  br i1 %cmp913.not, label %if.end17, label %for.body

for.body:                                         ; preds = %if.then7, %for.inc
  %3 = phi i32 [ %7, %for.inc ], [ %2, %if.then7 ]
  %indvars.iv = phi i64 [ %indvars.iv.next, %for.inc ], [ 0, %if.then7 ]
  %4 = load ptr, ptr %irq_counts, align 8
  %arrayidx = getelementptr i64, ptr %4, i64 %indvars.iv
  %5 = load i64, ptr %arrayidx, align 8
  %cmp10.not = icmp eq i64 %5, 0
  br i1 %cmp10.not, label %for.inc, label %if.then11

if.then11:                                        ; preds = %for.body
  %6 = trunc nuw i64 %indvars.iv to i32
  call void (ptr, ptr, ...) @g_string_append_printf(ptr noundef %opaque, ptr noundef nonnull @.str.33, i32 noundef %6, i64 noundef %5) #7
  %.pre = load i32, ptr %nb_irqs, align 4
  br label %for.inc

for.inc:                                          ; preds = %for.body, %if.then11
  %7 = phi i32 [ %3, %for.body ], [ %.pre, %if.then11 ]
  %indvars.iv.next = add nuw nsw i64 %indvars.iv, 1
  %8 = zext i32 %7 to i64
  %cmp9 = icmp samesign ult i64 %indvars.iv.next, %8
  br i1 %cmp9, label %for.body, label %if.end17, !llvm.loop !12

if.else:                                          ; preds = %land.lhs.true, %if.then
  %call15 = call ptr @object_get_typename(ptr noundef %obj) #7
  call void (ptr, ptr, ...) @g_string_append_printf(ptr noundef %opaque, ptr noundef nonnull @.str.34, ptr noundef %call15) #7
  br label %if.end17

if.end17:                                         ; preds = %for.inc, %if.then7, %if.else, %if.then6, %entry
  ret i32 0
}